target datalayout = "e-m:e-p270:32:32-p271:32:32-p272:64:64-i64:64-i128:128-f80:128-n8:16:32:64-S128"
target triple = "x86_64-pc-linux-gnu"

%struct.Float4X4 = type { %union.anon }
%union.anon = type { %struct.anon }
%struct.anon = type { float, float, float, float, float, float, float, float, float, float, float, float, float, float, float, float }

; Function Attrs: nounwind uwtable
define hidden void @MatrixTranslation(ptr dead_on_unwind noalias writable sret(%struct.Float4X4) align 4 %0, float noundef %1, float noundef %2, float noundef %3) #0 {
  %5 = alloca float, align 4
  %6 = alloca float, align 4
  %7 = alloca float, align 4
  store float %1, ptr %5, align 4
  store float %2, ptr %6, align 4
  store float %3, ptr %7, align 4
  call void @llvm.memset.p0.i64(ptr align 4 %0, i8 0, i64 64, i1 false)
  %8 = getelementptr inbounds nuw %struct.Float4X4, ptr %0, i32 0, i32 0
  %9 = getelementptr inbounds nuw %struct.anon, ptr %8, i32 0, i32 0
  store float 1.000000e+00, ptr %9, align 4
  %10 = getelementptr inbounds nuw %struct.Float4X4, ptr %0, i32 0, i32 0
  %11 = getelementptr inbounds nuw %struct.anon, ptr %10, i32 0, i32 5
  store float 1.000000e+00, ptr %11, align 4
  %12 = getelementptr inbounds nuw %struct.Float4X4, ptr %0, i32 0, i32 0
  %13 = getelementptr inbounds nuw %struct.anon, ptr %12, i32 0, i32 10
  store float 1.000000e+00, ptr %13, align 4
  %14 = getelementptr inbounds nuw %struct.Float4X4, ptr %0, i32 0, i32 0
  %15 = getelementptr inbounds nuw %struct.anon, ptr %14, i32 0, i32 15
  store float 1.000000e+00, ptr %15, align 4
  %16 = load float, ptr %5, align 4
  %17 = getelementptr inbounds nuw %struct.Float4X4, ptr %0, i32 0, i32 0
  %18 = getelementptr inbounds nuw %struct.anon, ptr %17, i32 0, i32 12
  store float %16, ptr %18, align 4
  %19 = load float, ptr %6, align 4
  %20 = getelementptr inbounds nuw %struct.Float4X4, ptr %0, i32 0, i32 0
  %21 = getelementptr inbounds nuw %struct.anon, ptr %20, i32 0, i32 13
  store float %19, ptr %21, align 4
  %22 = load float, ptr %7, align 4
  %23 = getelementptr inbounds nuw %struct.Float4X4, ptr %0, i32 0, i32 0
  %24 = getelementptr inbounds nuw %struct.anon, ptr %23, i32 0, i32 14
  store float %22, ptr %24, align 4
  ret void
}