; Function Attrs: mustprogress nofree norecurse nosync nounwind willreturn memory(argmem: write) uwtable
define hidden void @MatrixTranslation(ptr dead_on_unwind noalias writable writeonly sret(%struct.Float4X4) align 4 captures(none) initializes((0, 64)) %0, float noundef %1, float noundef %2, float noundef %3) local_unnamed_addr #0 {
  %5 = getelementptr inbounds nuw i8, ptr %0, i64 4
  tail call void @llvm.memset.p0.i64(ptr noundef nonnull align 4 dereferenceable(44) %5, i8 0, i64 44, i1 false)
  store float 1.000000e+00, ptr %0, align 4
  %6 = getelementptr inbounds nuw i8, ptr %0, i64 20
  store float 1.000000e+00, ptr %6, align 4
  %7 = getelementptr inbounds nuw i8, ptr %0, i64 40
  store float 1.000000e+00, ptr %7, align 4
  %8 = getelementptr inbounds nuw i8, ptr %0, i64 60
  store float 1.000000e+00, ptr %8, align 4
  %9 = getelementptr inbounds nuw i8, ptr %0, i64 48
  store float %1, ptr %9, align 4
  %10 = getelementptr inbounds nuw i8, ptr %0, i64 52
  store float %2, ptr %10, align 4
  %11 = getelementptr inbounds nuw i8, ptr %0, i64 56
  store float %3, ptr %11, align 4
  ret void
}